target datalayout = "e-m:e-p270:32:32-p271:32:32-p272:64:64-i64:64-i128:128-f80:128-n8:16:32:64-S128"
target triple = "x86_64-pc-linux-gnu"

; Function Attrs: nounwind uwtable
define i32 @wolfSSL_JoinThread(i64 noundef %0) #0 {
  %2 = alloca i32, align 4
  %3 = alloca i64, align 8
  store i64 %0, ptr %3, align 8, !tbaa !15
  %4 = load i64, ptr %3, align 8, !tbaa !15
  %5 = icmp eq i64 %4, -1
  br i1 %5, label %6, label %7

6:                                                ; preds = %1
  store i32 -173, ptr %2, align 4
  br label %13

7:                                                ; preds = %1
  %8 = load i64, ptr %3, align 8, !tbaa !15
  %9 = call i32 @pthread_join(i64 noundef %8, ptr noundef null)
  %10 = icmp ne i32 %9, 0
  br i1 %10, label %11, label %12

11:                                               ; preds = %7
  store i32 -125, ptr %2, align 4
  br label %13

12:                                               ; preds = %7
  store i32 0, ptr %2, align 4
  br label %13

13:                                               ; preds = %12, %11, %6
  %14 = load i32, ptr %2, align 4
  ret i32 %14
}