; Function Attrs: nounwind uwtable
define range(i32 -173, 1) i32 @wolfSSL_JoinThread(i64 noundef %0) local_unnamed_addr #2 {
  %2 = icmp eq i64 %0, -1
  br i1 %2, label %5, label %3

3:                                                ; preds = %1
  %4 = tail call i32 @pthread_join(i64 noundef %0, ptr noundef null) #16
  %.not = icmp eq i32 %4, 0
  %. = select i1 %.not, i32 0, i32 -125
  br label %5

5:                                                ; preds = %3, %1
  %.0 = phi i32 [ -173, %1 ], [ %., %3 ]
  ret i32 %.0
}